target datalayout = "e-m:e-p270:32:32-p271:32:32-p272:64:64-i64:64-i128:128-f80:128-n8:16:32:64-S128"
target triple = "x86_64-pc-linux-gnu"

; Function Attrs: mustprogress nounwind uwtable
define void @_ZN5folly20alignedForwardMemcpyEPvPKvm(ptr noundef %0, ptr noundef %1, i64 noundef %2) #2 {
  %4 = alloca ptr, align 8
  %5 = alloca ptr, align 8
  %6 = alloca i64, align 8
  %7 = alloca ptr, align 8
  %8 = alloca ptr, align 8
  %9 = alloca ptr, align 8
  %10 = alloca ptr, align 8
  store ptr %0, ptr %4, align 8, !tbaa !55
  store ptr %1, ptr %5, align 8, !tbaa !55
  store i64 %2, ptr %6, align 8, !tbaa !22
  call void @llvm.lifetime.start.p0(i64 8, ptr %7) #17
  %11 = load ptr, ptr %5, align 8, !tbaa !55
  store ptr %11, ptr %7, align 8, !tbaa !65
  call void @llvm.lifetime.start.p0(i64 8, ptr %8) #17
  %12 = load ptr, ptr %4, align 8, !tbaa !55
  store ptr %12, ptr %8, align 8, !tbaa !65
  br label %13

13:                                               ; preds = %16, %3
  %14 = load i64, ptr %6, align 8, !tbaa !22
  %15 = icmp uge i64 %14, 8
  br i1 %15, label %16, label %24

16:                                               ; preds = %13
  %17 = load ptr, ptr %7, align 8, !tbaa !65
  %18 = getelementptr inbounds nuw i64, ptr %17, i32 1
  store ptr %18, ptr %7, align 8, !tbaa !65
  %19 = load i64, ptr %17, align 8, !tbaa !22
  %20 = load ptr, ptr %8, align 8, !tbaa !65
  %21 = getelementptr inbounds nuw i64, ptr %20, i32 1
  store ptr %21, ptr %8, align 8, !tbaa !65
  store i64 %19, ptr %20, align 8, !tbaa !22
  %22 = load i64, ptr %6, align 8, !tbaa !22
  %23 = sub i64 %22, 8
  store i64 %23, ptr %6, align 8, !tbaa !22
  br label %13, !llvm.loop !152

24:                                               ; preds = %13
  call void @llvm.lifetime.start.p0(i64 8, ptr %9) #17
  %25 = load ptr, ptr %7, align 8, !tbaa !65
  store ptr %25, ptr %9, align 8, !tbaa !12
  call void @llvm.lifetime.start.p0(i64 8, ptr %10) #17
  %26 = load ptr, ptr %8, align 8, !tbaa !65
  store ptr %26, ptr %10, align 8, !tbaa !12
  br label %27

27:                                               ; preds = %30, %24
  %28 = load i64, ptr %6, align 8, !tbaa !22
  %29 = icmp ne i64 %28, 0
  br i1 %29, label %30, label %38

30:                                               ; preds = %27
  %31 = load ptr, ptr %9, align 8, !tbaa !12
  %32 = getelementptr inbounds nuw i8, ptr %31, i32 1
  store ptr %32, ptr %9, align 8, !tbaa !12
  %33 = load i8, ptr %31, align 1, !tbaa !20
  %34 = load ptr, ptr %10, align 8, !tbaa !12
  %35 = getelementptr inbounds nuw i8, ptr %34, i32 1
  store ptr %35, ptr %10, align 8, !tbaa !12
  store i8 %33, ptr %34, align 1, !tbaa !20
  %36 = load i64, ptr %6, align 8, !tbaa !22
  %37 = add i64 %36, -1
  store i64 %37, ptr %6, align 8, !tbaa !22
  br label %27, !llvm.loop !153

38:                                               ; preds = %27
  call void @llvm.lifetime.end.p0(i64 8, ptr %10) #17
  call void @llvm.lifetime.end.p0(i64 8, ptr %9) #17
  call void @llvm.lifetime.end.p0(i64 8, ptr %8) #17
  call void @llvm.lifetime.end.p0(i64 8, ptr %7) #17
  ret void
}