; Function Attrs: mustprogress nofree norecurse nosync nounwind memory(argmem: readwrite) uwtable
define void @_ZN5folly20alignedForwardMemcpyEPvPKvm(ptr noundef writeonly captures(none) %0, ptr noundef readonly captures(none) %1, i64 noundef %2) local_unnamed_addr #14 {
  %4 = icmp ugt i64 %2, 7
  br i1 %4, label %.lr.ph, label %.preheader

.preheader:                                       ; preds = %.lr.ph, %3
  %.014.lcssa = phi i64 [ %2, %3 ], [ %8, %.lr.ph ]
  %.013.lcssa = phi ptr [ %1, %3 ], [ %5, %.lr.ph ]
  %.012.lcssa = phi ptr [ %0, %3 ], [ %7, %.lr.ph ]
  %.not20 = icmp eq i64 %.014.lcssa, 0
  br i1 %.not20, label %._crit_edge, label %.lr.ph24

.lr.ph:                                           ; preds = %3, %.lr.ph
  %.01217 = phi ptr [ %7, %.lr.ph ], [ %0, %3 ]
  %.01316 = phi ptr [ %5, %.lr.ph ], [ %1, %3 ]
  %.01415 = phi i64 [ %8, %.lr.ph ], [ %2, %3 ]
  %5 = getelementptr inbounds nuw i8, ptr %.01316, i64 8
  %6 = load i64, ptr %.01316, align 8, !tbaa !28
  %7 = getelementptr inbounds nuw i8, ptr %.01217, i64 8
  store i64 %6, ptr %.01217, align 8, !tbaa !28
  %8 = add i64 %.01415, -8
  %9 = icmp ugt i64 %8, 7
  br i1 %9, label %.lr.ph, label %.preheader, !llvm.loop !86

.lr.ph24:                                         ; preds = %.preheader, %.lr.ph24
  %.023 = phi ptr [ %12, %.lr.ph24 ], [ %.012.lcssa, %.preheader ]
  %.01122 = phi ptr [ %10, %.lr.ph24 ], [ %.013.lcssa, %.preheader ]
  %.121 = phi i64 [ %13, %.lr.ph24 ], [ %.014.lcssa, %.preheader ]
  %10 = getelementptr inbounds nuw i8, ptr %.01122, i64 1
  %11 = load i8, ptr %.01122, align 1, !tbaa !36
  %12 = getelementptr inbounds nuw i8, ptr %.023, i64 1
  store i8 %11, ptr %.023, align 1, !tbaa !36
  %13 = add nsw i64 %.121, -1
  %.not = icmp eq i64 %13, 0
  br i1 %.not, label %._crit_edge, label %.lr.ph24, !llvm.loop !87

._crit_edge:                                      ; preds = %.lr.ph24, %.preheader
  ret void
}